target datalayout = "e-m:e-p270:32:32-p271:32:32-p272:64:64-i64:64-i128:128-f80:128-n8:16:32:64-S128"
target triple = "x86_64-pc-linux-gnu"

; Function Attrs: null_pointer_is_valid sspstrong uwtable
define internal i32 @get_dnp3_message_len(ptr noundef %0, ptr noundef %1, i32 noundef %2, ptr noundef %3) #0 {
  %5 = alloca ptr, align 8
  %6 = alloca ptr, align 8
  %7 = alloca i32, align 4
  %8 = alloca ptr, align 8
  %9 = alloca i16, align 2
  %10 = alloca i16, align 2
  store ptr %0, ptr %5, align 8
  store ptr %1, ptr %6, align 8
  store i32 %2, ptr %7, align 4
  store ptr %3, ptr %8, align 8
  call void @llvm.lifetime.start.p0(i64 2, ptr %9) #11
  call void @llvm.lifetime.start.p0(i64 2, ptr %10) #11
  %11 = load ptr, ptr %6, align 8
  %12 = load i32, ptr %7, align 4
  %13 = add i32 %12, 2
  %14 = call zeroext i8 @tvb_get_uint8(ptr noundef %11, i32 noundef %13)
  %15 = zext i8 %14 to i16
  store i16 %15, ptr %9, align 2
  %16 = load i16, ptr %9, align 2
  %17 = zext i16 %16 to i32
  %18 = sub i32 %17, 5
  %19 = sitofp i32 %18 to double
  %20 = fdiv double %19, 1.600000e+01
  %21 = call double @llvm.ceil.f64(double %20)
  %22 = fptoui double %21 to i16
  %23 = zext i16 %22 to i32
  %24 = mul i32 %23, 2
  %25 = trunc i32 %24 to i16
  store i16 %25, ptr %10, align 2
  %26 = load i16, ptr %10, align 2
  %27 = zext i16 %26 to i32
  %28 = add i32 5, %27
  %29 = load i16, ptr %9, align 2
  %30 = zext i16 %29 to i32
  %31 = add i32 %30, %28
  %32 = trunc i32 %31 to i16
  store i16 %32, ptr %9, align 2
  %33 = load i16, ptr %9, align 2
  %34 = zext i16 %33 to i32
  call void @llvm.lifetime.end.p0(i64 2, ptr %10) #11
  call void @llvm.lifetime.end.p0(i64 2, ptr %9) #11
  ret i32 %34
}