; Function Attrs: null_pointer_is_valid sspstrong uwtable
define internal range(i32 0, 65536) i32 @get_dnp3_message_len(ptr readnone captures(none) %0, ptr noundef %1, i32 noundef %2, ptr readnone captures(none) %3) #0 {
  %5 = add i32 %2, 2
  %6 = tail call zeroext i8 @tvb_get_uint8(ptr noundef %1, i32 noundef %5)
  %7 = zext i8 %6 to i32
  %8 = add nsw i32 %7, -5
  %9 = sitofp i32 %8 to double
  %10 = fmul double %9, 6.250000e-02
  %11 = tail call double @llvm.ceil.f64(double %10)
  %12 = fptoui double %11 to i16
  %13 = shl i16 %12, 1
  %14 = zext i8 %6 to i16
  %.tr = add nuw nsw i16 %14, 5
  %.narrow = add i16 %.tr, %13
  %15 = zext i16 %.narrow to i32
  ret i32 %15
}